target datalayout = "e-m:e-p270:32:32-p271:32:32-p272:64:64-i64:64-i128:128-f80:128-n8:16:32:64-S128"
target triple = "x86_64-pc-linux-gnu"

%"class.Assimp::OptimizeMeshesProcess" = type { %"class.Assimp::BaseProcess", ptr, %"class.std::vector", %"class.std::vector.0", i8, i32, i32, %"class.std::vector.0" }
%"class.Assimp::BaseProcess" = type { ptr, ptr, ptr }
%"class.std::vector" = type { %"struct.std::_Vector_base" }
%"struct.std::_Vector_base" = type { %"struct.std::_Vector_base<Assimp::OptimizeMeshesProcess::MeshInfo, std::allocator<Assimp::OptimizeMeshesProcess::MeshInfo>>::_Vector_impl" }
%"struct.std::_Vector_base<Assimp::OptimizeMeshesProcess::MeshInfo, std::allocator<Assimp::OptimizeMeshesProcess::MeshInfo>>::_Vector_impl" = type { %"struct.std::_Vector_base<Assimp::OptimizeMeshesProcess::MeshInfo, std::allocator<Assimp::OptimizeMeshesProcess::MeshInfo>>::_Vector_impl_data" }
%"struct.std::_Vector_base<Assimp::OptimizeMeshesProcess::MeshInfo, std::allocator<Assimp::OptimizeMeshesProcess::MeshInfo>>::_Vector_impl_data" = type { ptr, ptr, ptr }
%"class.std::vector.0" = type { %"struct.std::_Vector_base.1" }
%"struct.std::_Vector_base.1" = type { %"struct.std::_Vector_base<aiMesh *, std::allocator<aiMesh *>>::_Vector_impl" }
%"struct.std::_Vector_base<aiMesh *, std::allocator<aiMesh *>>::_Vector_impl" = type { %"struct.std::_Vector_base<aiMesh *, std::allocator<aiMesh *>>::_Vector_impl_data" }
%"struct.std::_Vector_base<aiMesh *, std::allocator<aiMesh *>>::_Vector_impl_data" = type { ptr, ptr, ptr }

; Function Attrs: mustprogress nounwind uwtable
define hidden noundef zeroext i1 @_ZNK6Assimp21OptimizeMeshesProcess8IsActiveEj(ptr noundef nonnull align 8 dereferenceable(120) %0, i32 noundef %1) unnamed_addr #0 align 2 {
  %3 = alloca i1, align 1
  %4 = alloca ptr, align 8
  %5 = alloca i32, align 4
  store ptr %0, ptr %4, align 8
  store i32 %1, ptr %5, align 4
  %6 = load ptr, ptr %4, align 8
  %7 = load i32, ptr %5, align 4
  %8 = and i32 %7, 2097152
  %9 = icmp ne i32 0, %8
  br i1 %9, label %10, label %26

10:                                               ; preds = %2
  %11 = load i32, ptr %5, align 4
  %12 = and i32 %11, 32768
  %13 = icmp ne i32 0, %12
  %14 = getelementptr inbounds nuw %"class.Assimp::OptimizeMeshesProcess", ptr %6, i32 0, i32 4
  %15 = zext i1 %13 to i8
  store i8 %15, ptr %14, align 8
  %16 = load i32, ptr %5, align 4
  %17 = and i32 %16, 128
  %18 = icmp ne i32 0, %17
  br i1 %18, label %19, label %20

19:                                               ; preds = %10
  br label %23

20:                                               ; preds = %10
  %21 = getelementptr inbounds nuw %"class.Assimp::OptimizeMeshesProcess", ptr %6, i32 0, i32 5
  %22 = load i32, ptr %21, align 4
  br label %23

23:                                               ; preds = %20, %19
  %24 = phi i32 [ -559038737, %19 ], [ %22, %20 ]
  %25 = getelementptr inbounds nuw %"class.Assimp::OptimizeMeshesProcess", ptr %6, i32 0, i32 5
  store i32 %24, ptr %25, align 4
  store i1 true, ptr %3, align 1
  br label %27

26:                                               ; preds = %2
  store i1 false, ptr %3, align 1
  br label %27

27:                                               ; preds = %26, %23
  %28 = load i1, ptr %3, align 1
  ret i1 %28
}