; Function Attrs: mustprogress nofree norecurse nosync nounwind willreturn memory(argmem: readwrite) uwtable
define hidden noundef zeroext i1 @_ZNK6Assimp21OptimizeMeshesProcess8IsActiveEj(ptr noundef nonnull align 8 captures(none) dereferenceable(120) %0, i32 noundef %1) unnamed_addr #2 align 2 {
  %3 = and i32 %1, 2097152
  %.not = icmp ne i32 %3, 0
  br i1 %.not, label %4, label %13

4:                                                ; preds = %2
  %5 = getelementptr inbounds nuw i8, ptr %0, i64 80
  %6 = lshr i32 %1, 15
  %7 = trunc i32 %6 to i8
  %8 = and i8 %7, 1
  store i8 %8, ptr %5, align 8
  %9 = and i32 %1, 128
  %.not4 = icmp eq i32 %9, 0
  %10 = getelementptr inbounds nuw i8, ptr %0, i64 84
  %11 = load i32, ptr %10, align 4
  %12 = select i1 %.not4, i32 %11, i32 -559038737
  store i32 %12, ptr %10, align 4
  br label %13

13:                                               ; preds = %2, %4
  ret i1 %.not
}